target datalayout = "e-m:e-p270:32:32-p271:32:32-p272:64:64-i64:64-i128:128-f80:128-n8:16:32:64-S128"
target triple = "x86_64-pc-linux-gnu"

%"class.std::__cxx11::basic_string" = type { %"struct.std::__cxx11::basic_string<char>::_Alloc_hider", i64, %union.anon.31 }
%"struct.std::__cxx11::basic_string<char>::_Alloc_hider" = type { ptr }
%union.anon.31 = type { i64, [8 x i8] }

; Function Attrs: mustprogress nounwind uwtable
define available_externally noundef ptr @_ZNKSt7__cxx1112basic_stringIcSt11char_traitsIcESaIcEE7_M_dataEv(ptr noundef nonnull align 8 dereferenceable(32) %0) #2 align 2 {
  %2 = alloca ptr, align 8
  store ptr %0, ptr %2, align 8
  %3 = load ptr, ptr %2, align 8
  %4 = getelementptr inbounds nuw %"class.std::__cxx11::basic_string", ptr %3, i32 0, i32 0
  %5 = getelementptr inbounds nuw %"struct.std::__cxx11::basic_string<char>::_Alloc_hider", ptr %4, i32 0, i32 0
  %6 = load ptr, ptr %5, align 8
  ret ptr %6
}

; Function Attrs: inlinehint mustprogress nounwind uwtable
define linkonce_odr hidden noundef i32 @_ZN6Assimp9strtoul10EPKcPS1_(ptr noundef %0, ptr noundef %1) #4 comdat {
  %3 = alloca ptr, align 8
  %4 = alloca ptr, align 8
  %5 = alloca i32, align 4
  store ptr %0, ptr %3, align 8
  store ptr %1, ptr %4, align 8
  call void @llvm.lifetime.start.p0(i64 4, ptr %5) #18
  store i32 0, ptr %5, align 4
  br label %6

6:                                                ; preds = %17, %2
  %7 = load ptr, ptr %3, align 8
  %8 = load i8, ptr %7, align 1
  %9 = sext i8 %8 to i32
  %10 = icmp slt i32 %9, 48
  br i1 %10, label %16, label %11

11:                                               ; preds = %6
  %12 = load ptr, ptr %3, align 8
  %13 = load i8, ptr %12, align 1
  %14 = sext i8 %13 to i32
  %15 = icmp sgt i32 %14, 57
  br i1 %15, label %16, label %17

16:                                               ; preds = %11, %6
  br label %27

17:                                               ; preds = %11
  %18 = load i32, ptr %5, align 4
  %19 = mul i32 %18, 10
  %20 = load ptr, ptr %3, align 8
  %21 = load i8, ptr %20, align 1
  %22 = sext i8 %21 to i32
  %23 = sub nsw i32 %22, 48
  %24 = add i32 %19, %23
  store i32 %24, ptr %5, align 4
  %25 = load ptr, ptr %3, align 8
  %26 = getelementptr inbounds nuw i8, ptr %25, i32 1
  store ptr %26, ptr %3, align 8
  br label %6, !llvm.loop !13

27:                                               ; preds = %16
  %28 = load ptr, ptr %4, align 8
  %29 = icmp ne ptr %28, null
  br i1 %29, label %30, label %33

30:                                               ; preds = %27
  %31 = load ptr, ptr %3, align 8
  %32 = load ptr, ptr %4, align 8
  store ptr %31, ptr %32, align 8
  br label %33

33:                                               ; preds = %30, %27
  %34 = load i32, ptr %5, align 4
  call void @llvm.lifetime.end.p0(i64 4, ptr %5) #18
  ret i32 %34
}

; Function Attrs: mustprogress nounwind uwtable
define available_externally noundef nonnull align 1 dereferenceable(1) ptr @_ZNKSt7__cxx1112basic_stringIcSt11char_traitsIcESaIcEEixEm(ptr noundef nonnull align 8 dereferenceable(32) %0, i64 noundef %1) #2 align 2 {
  %3 = alloca ptr, align 8
  %4 = alloca i64, align 8
  store ptr %0, ptr %3, align 8
  store i64 %1, ptr %4, align 8
  %5 = load ptr, ptr %3, align 8
  br label %6

6:                                                ; preds = %2
  br label %7

7:                                                ; preds = %6
  br label %8

8:                                                ; preds = %7
  %9 = call noundef ptr @_ZNKSt7__cxx1112basic_stringIcSt11char_traitsIcESaIcEE7_M_dataEv(ptr noundef nonnull align 8 dereferenceable(32) %5)
  %10 = load i64, ptr %4, align 8
  %11 = getelementptr inbounds nuw i8, ptr %9, i64 %10
  ret ptr %11
}

; Function Attrs: mustprogress uwtable
define hidden void @_ZN6Assimp7Blender3DNA16ExtractArraySizeERKNSt7__cxx1112basic_stringIcSt11char_traitsIcESaIcEEEPm(ptr noundef nonnull align 8 dereferenceable(32) %0, ptr noundef %1) #0 align 2 {
  %3 = alloca ptr, align 8
  %4 = alloca ptr, align 8
  %5 = alloca i64, align 8
  %6 = alloca i32, align 4
  store ptr %0, ptr %3, align 8
  store ptr %1, ptr %4, align 8
  %7 = load ptr, ptr %4, align 8
  %8 = getelementptr inbounds i64, ptr %7, i64 1
  store i64 1, ptr %8, align 8
  %9 = load ptr, ptr %4, align 8
  %10 = getelementptr inbounds i64, ptr %9, i64 0
  store i64 1, ptr %10, align 8
  call void @llvm.lifetime.start.p0(i64 8, ptr %5) #18
  %11 = load ptr, ptr %3, align 8
  %12 = call noundef i64 @_ZNKSt7__cxx1112basic_stringIcSt11char_traitsIcESaIcEE4findEcm(ptr noundef nonnull align 8 dereferenceable(32) %11, i8 noundef signext 91, i64 noundef 0) #18
  store i64 %12, ptr %5, align 8
  %13 = load i64, ptr %5, align 8
  %14 = add i64 %13, 1
  store i64 %14, ptr %5, align 8
  %15 = icmp eq i64 %13, -1
  br i1 %15, label %16, label %17

16:                                               ; preds = %2
  store i32 1, ptr %6, align 4
  br label %40

17:                                               ; preds = %2
  %18 = load ptr, ptr %3, align 8
  %19 = load i64, ptr %5, align 8
  %20 = call noundef nonnull align 1 dereferenceable(1) ptr @_ZNKSt7__cxx1112basic_stringIcSt11char_traitsIcESaIcEEixEm(ptr noundef nonnull align 8 dereferenceable(32) %18, i64 noundef %19) #18
  %21 = call noundef i32 @_ZN6Assimp9strtoul10EPKcPS1_(ptr noundef %20, ptr noundef null)
  %22 = zext i32 %21 to i64
  %23 = load ptr, ptr %4, align 8
  %24 = getelementptr inbounds i64, ptr %23, i64 0
  store i64 %22, ptr %24, align 8
  %25 = load ptr, ptr %3, align 8
  %26 = load i64, ptr %5, align 8
  %27 = call noundef i64 @_ZNKSt7__cxx1112basic_stringIcSt11char_traitsIcESaIcEE4findEcm(ptr noundef nonnull align 8 dereferenceable(32) %25, i8 noundef signext 91, i64 noundef %26) #18
  store i64 %27, ptr %5, align 8
  %28 = load i64, ptr %5, align 8
  %29 = add i64 %28, 1
  store i64 %29, ptr %5, align 8
  %30 = icmp eq i64 %28, -1
  br i1 %30, label %31, label %32

31:                                               ; preds = %17
  store i32 1, ptr %6, align 4
  br label %40

32:                                               ; preds = %17
  %33 = load ptr, ptr %3, align 8
  %34 = load i64, ptr %5, align 8
  %35 = call noundef nonnull align 1 dereferenceable(1) ptr @_ZNKSt7__cxx1112basic_stringIcSt11char_traitsIcESaIcEEixEm(ptr noundef nonnull align 8 dereferenceable(32) %33, i64 noundef %34) #18
  %36 = call noundef i32 @_ZN6Assimp9strtoul10EPKcPS1_(ptr noundef %35, ptr noundef null)
  %37 = zext i32 %36 to i64
  %38 = load ptr, ptr %4, align 8
  %39 = getelementptr inbounds i64, ptr %38, i64 1
  store i64 %37, ptr %39, align 8
  store i32 0, ptr %6, align 4
  br label %40

40:                                               ; preds = %32, %31, %16
  call void @llvm.lifetime.end.p0(i64 8, ptr %5) #18
  %41 = load i32, ptr %6, align 4
  switch i32 %41, label %43 [
    i32 0, label %42
    i32 1, label %42
  ]

42:                                               ; preds = %40, %40
  ret void

43:                                               ; preds = %40
  unreachable
}