; Function Attrs: mustprogress nounwind uwtable
define hidden void @_ZN6Assimp7Blender3DNA16ExtractArraySizeERKNSt7__cxx1112basic_stringIcSt11char_traitsIcESaIcEEEPm(ptr noundef nonnull align 8 dereferenceable(32) %0, ptr noundef writeonly captures(none) initializes((0, 16)) %1) local_unnamed_addr #6 align 2 {
  %3 = getelementptr inbounds nuw i8, ptr %1, i64 8
  store i64 1, ptr %3, align 8
  store i64 1, ptr %1, align 8
  %4 = tail call noundef i64 @_ZNKSt7__cxx1112basic_stringIcSt11char_traitsIcESaIcEE4findEcm(ptr noundef nonnull align 8 dereferenceable(32) %0, i8 noundef signext 91, i64 noundef 0) #21
  %5 = icmp eq i64 %4, -1
  br i1 %5, label %36, label %6

6:                                                ; preds = %2
  %7 = add nuw i64 %4, 1
  %8 = load ptr, ptr %0, align 8
  %9 = getelementptr inbounds nuw i8, ptr %8, i64 %7
  %10 = load i8, ptr %9, align 1
  %11 = add i8 %10, -58
  %or.cond11.i = icmp ult i8 %11, -10
  br i1 %or.cond11.i, label %_ZN6Assimp9strtoul10EPKcPS1_.exit, label %.lr.ph.i

.lr.ph.i:                                         ; preds = %6, %.lr.ph.i
  %12 = phi i8 [ %17, %.lr.ph.i ], [ %10, %6 ]
  %.013.i = phi i32 [ %15, %.lr.ph.i ], [ 0, %6 ]
  %.0812.i = phi ptr [ %16, %.lr.ph.i ], [ %9, %6 ]
  %13 = mul i32 %.013.i, 10
  %narrow.i = add nsw i8 %12, -48
  %14 = zext nneg i8 %narrow.i to i32
  %15 = add i32 %13, %14
  %16 = getelementptr inbounds nuw i8, ptr %.0812.i, i64 1
  %17 = load i8, ptr %16, align 1
  %18 = add i8 %17, -58
  %or.cond.i = icmp ult i8 %18, -10
  br i1 %or.cond.i, label %_ZN6Assimp9strtoul10EPKcPS1_.exit.loopexit, label %.lr.ph.i, !llvm.loop !15

_ZN6Assimp9strtoul10EPKcPS1_.exit.loopexit:       ; preds = %.lr.ph.i
  %19 = zext i32 %15 to i64
  br label %_ZN6Assimp9strtoul10EPKcPS1_.exit

_ZN6Assimp9strtoul10EPKcPS1_.exit:                ; preds = %_ZN6Assimp9strtoul10EPKcPS1_.exit.loopexit, %6
  %.0.lcssa.i = phi i64 [ 0, %6 ], [ %19, %_ZN6Assimp9strtoul10EPKcPS1_.exit.loopexit ]
  store i64 %.0.lcssa.i, ptr %1, align 8
  %20 = tail call noundef i64 @_ZNKSt7__cxx1112basic_stringIcSt11char_traitsIcESaIcEE4findEcm(ptr noundef nonnull align 8 dereferenceable(32) %0, i8 noundef signext 91, i64 noundef %7) #21
  %21 = icmp eq i64 %20, -1
  br i1 %21, label %36, label %22

22:                                               ; preds = %_ZN6Assimp9strtoul10EPKcPS1_.exit
  %23 = load ptr, ptr %0, align 8
  %24 = getelementptr i8, ptr %23, i64 %20
  %25 = getelementptr i8, ptr %24, i64 1
  %26 = load i8, ptr %25, align 1
  %27 = add i8 %26, -58
  %or.cond11.i12 = icmp ult i8 %27, -10
  br i1 %or.cond11.i12, label %_ZN6Assimp9strtoul10EPKcPS1_.exit20, label %.lr.ph.i13

.lr.ph.i13:                                       ; preds = %22, %.lr.ph.i13
  %28 = phi i8 [ %33, %.lr.ph.i13 ], [ %26, %22 ]
  %.013.i14 = phi i32 [ %31, %.lr.ph.i13 ], [ 0, %22 ]
  %.0812.i15 = phi ptr [ %32, %.lr.ph.i13 ], [ %25, %22 ]
  %29 = mul i32 %.013.i14, 10
  %narrow.i16 = add nsw i8 %28, -48
  %30 = zext nneg i8 %narrow.i16 to i32
  %31 = add i32 %29, %30
  %32 = getelementptr inbounds nuw i8, ptr %.0812.i15, i64 1
  %33 = load i8, ptr %32, align 1
  %34 = add i8 %33, -58
  %or.cond.i17 = icmp ult i8 %34, -10
  br i1 %or.cond.i17, label %_ZN6Assimp9strtoul10EPKcPS1_.exit20.loopexit, label %.lr.ph.i13, !llvm.loop !15

_ZN6Assimp9strtoul10EPKcPS1_.exit20.loopexit:     ; preds = %.lr.ph.i13
  %35 = zext i32 %31 to i64
  br label %_ZN6Assimp9strtoul10EPKcPS1_.exit20

_ZN6Assimp9strtoul10EPKcPS1_.exit20:              ; preds = %_ZN6Assimp9strtoul10EPKcPS1_.exit20.loopexit, %22
  %.0.lcssa.i19 = phi i64 [ 0, %22 ], [ %35, %_ZN6Assimp9strtoul10EPKcPS1_.exit20.loopexit ]
  store i64 %.0.lcssa.i19, ptr %3, align 8
  br label %36

36:                                               ; preds = %_ZN6Assimp9strtoul10EPKcPS1_.exit, %2, %_ZN6Assimp9strtoul10EPKcPS1_.exit20
  ret void
}